; Function Attrs: mustprogress uwtable
define hidden void @_ZN3sls12basic_plugin8eval_xorEP3app(ptr dead_on_unwind noalias writable writeonly sret(%class.obj_ref) align 8 captures(none) %0, ptr noundef nonnull readonly align 8 captures(none) dereferenceable(56) %1, ptr noundef readonly captures(address) %2) local_unnamed_addr #3 align 2 {
  %4 = getelementptr inbounds nuw i8, ptr %2, i64 24
  %5 = load i32, ptr %4, align 8, !tbaa !35
  %6 = zext i32 %5 to i64
  %.idx = shl nuw nsw i64 %6, 3
  %7 = getelementptr inbounds nuw i8, ptr %2, i64 %.idx
  %.ptr14 = getelementptr inbounds nuw i8, ptr %7, i64 32
  %.not11 = icmp eq i32 %5, 0
  br i1 %.not11, label %._crit_edge, label %.lr.ph

.lr.ph:                                           ; preds = %3
  %.ptr = getelementptr inbounds nuw i8, ptr %2, i64 32
  %8 = getelementptr inbounds nuw i8, ptr %1, i64 8
  br label %17

._crit_edge.loopexit:                             ; preds = %17
  %9 = select i1 %21, i64 856, i64 864
  br label %._crit_edge

._crit_edge:                                      ; preds = %._crit_edge.loopexit, %3
  %.0.lcssa = phi i64 [ 864, %3 ], [ %9, %._crit_edge.loopexit ]
  %10 = getelementptr inbounds nuw i8, ptr %1, i64 16
  %11 = load ptr, ptr %10, align 8, !tbaa !3
  %.in.i = getelementptr inbounds nuw i8, ptr %11, i64 %.0.lcssa
  %12 = load ptr, ptr %.in.i, align 8, !tbaa !12
  store ptr %12, ptr %0, align 8, !tbaa !14
  %13 = getelementptr inbounds nuw i8, ptr %0, i64 8
  store ptr %11, ptr %13, align 8, !tbaa !17
  %.not.i.i = icmp eq ptr %12, null
  br i1 %.not.i.i, label %_ZN7obj_refI4expr11ast_managerEC2EPS0_RS1_.exit, label %_ZN11ast_manager7inc_refEP3ast.exit.i.i

_ZN11ast_manager7inc_refEP3ast.exit.i.i:          ; preds = %._crit_edge
  %14 = getelementptr inbounds nuw i8, ptr %12, i64 8
  %15 = load i32, ptr %14, align 4, !tbaa !18
  %16 = add i32 %15, 1
  store i32 %16, ptr %14, align 4, !tbaa !18
  br label %_ZN7obj_refI4expr11ast_managerEC2EPS0_RS1_.exit

_ZN7obj_refI4expr11ast_managerEC2EPS0_RS1_.exit:  ; preds = %._crit_edge, %_ZN11ast_manager7inc_refEP3ast.exit.i.i
  ret void

17:                                               ; preds = %.lr.ph, %17
  %.013 = phi i1 [ false, %.lr.ph ], [ %21, %17 ]
  %.01012 = phi ptr [ %.ptr, %.lr.ph ], [ %22, %17 ]
  %18 = load ptr, ptr %.01012, align 8, !tbaa !36
  %19 = load ptr, ptr %8, align 8, !tbaa !11
  %20 = tail call noundef zeroext i1 @_ZN3sls7context7is_trueEP4expr(ptr noundef nonnull align 8 dereferenceable(321) %19, ptr noundef %18)
  %21 = xor i1 %.013, %20
  %22 = getelementptr inbounds nuw i8, ptr %.01012, i64 8
  %.not = icmp eq ptr %22, %.ptr14
  br i1 %.not, label %._crit_edge.loopexit, label %17
}